(dp0
S'PersonalField7'
p1
ccopy_reg
_reconstructor
p2
(csklearn.preprocessing.label
LabelEncoder
p3
c__builtin__
object
p4
Ntp5
Rp6
(dp7
S'classes_'
p8
cnumpy.core.multiarray
_reconstruct
p9
(cnumpy
ndarray
p10
(I0
tp11
S'b'
p12
tp13
Rp14
(I1
(I3
tp15
cnumpy
dtype
p16
(S'S3'
p17
I0
I1
tp18
Rp19
(I3
S'|'
p20
NNNI3
I1
I0
tp21
bI00
S'N\x00\x00Y\x00\x00nan'
p22
tp23
bsbsS'Field6'
p24
g2
(g3
g4
Ntp25
Rp26
(dp27
g8
g9
(g10
(I0
tp28
g12
tp29
Rp30
(I1
(I8
tp31
g16
(S'S1'
p32
I0
I1
tp33
Rp34
(I3
S'|'
p35
NNNI1
I1
I0
tp36
bI00
S'ABCDEFJK'
p37
tp38
bsbsS'PropertyField28'
p39
g2
(g3
g4
Ntp40
Rp41
(dp42
g8
g9
(g10
(I0
tp43
g12
tp44
Rp45
(I1
(I4
tp46
g16
(S'S1'
p47
I0
I1
tp48
Rp49
(I3
S'|'
p50
NNNI1
I1
I0
tp51
bI00
S'ABCD'
p52
tp53
bsbsS'PropertyField5'
p54
g2
(g3
g4
Ntp55
Rp56
(dp57
g8
g9
(g10
(I0
tp58
g12
tp59
Rp60
(I1
(I3
tp61
g16
(S'S3'
p62
I0
I1
tp63
Rp64
(I3
S'|'
p65
NNNI3
I1
I0
tp66
bI00
S'N\x00\x00Y\x00\x00nan'
p67
tp68
bsbsS'PropertyField4'
p69
g2
(g3
g4
Ntp70
Rp71
(dp72
g8
g9
(g10
(I0
tp73
g12
tp74
Rp75
(I1
(I3
tp76
g16
(S'S3'
p77
I0
I1
tp78
Rp79
(I3
S'|'
p80
NNNI3
I1
I0
tp81
bI00
S'N\x00\x00Y\x00\x00nan'
p82
tp83
bsbsS'PropertyField7'
p84
g2
(g3
g4
Ntp85
Rp86
(dp87
g8
g9
(g10
(I0
tp88
g12
tp89
Rp90
(I1
(I20
tp91
g16
(S'S1'
p92
I0
I1
tp93
Rp94
(I3
S'|'
p95
NNNI1
I1
I0
tp96
bI00
S'ABCDEFGHIJKLMNOPQRST'
p97
tp98
bsbsS'PropertyField3'
p99
g2
(g3
g4
Ntp100
Rp101
(dp102
g8
g9
(g10
(I0
tp103
g12
tp104
Rp105
(I1
(I3
tp106
g16
(S'S3'
p107
I0
I1
tp108
Rp109
(I3
S'|'
p110
NNNI3
I1
I0
tp111
bI00
S'N\x00\x00Y\x00\x00nan'
p112
tp113
bsbsS'PersonalField18'
p114
g2
(g3
g4
Ntp115
Rp116
(dp117
g8
g9
(g10
(I0
tp118
g12
tp119
Rp120
(I1
(I62
tp121
g16
(S'S2'
p122
I0
I1
tp123
Rp124
(I3
S'|'
p125
NNNI2
I1
I0
tp126
bI00
S'XBXCXDXEXFXGXHXIXJXKXLXMXNXOXPXQXRXSXTXUXVXWXXXYXZYEYFYGYHYIYJYKYLYMYNYOYPYQYRZAZBZCZDZEZFZGZHZIZJZKZLZMZNZOZPZQZRZSZTZUZVZW'
p127
tp128
bsbsS'PersonalField19'
p129
g2
(g3
g4
Ntp130
Rp131
(dp132
g8
g9
(g10
(I0
tp133
g12
tp134
Rp135
(I1
(I58
tp136
g16
(S'S2'
p137
I0
I1
tp138
Rp139
(I3
S'|'
p140
NNNI2
I1
I0
tp141
bI00
S'XBXCXDXEXFXGXHXIXJXKXLXMXNXOXPXQXRXSXTXUXVXWXXXYXZYEYFYGYHYIYJYKYLYMYNZAZBZCZDZEZFZGZHZIZJZKZLZMZNZOZPZQZRZSZTZUZVZW'
p142
tp143
bsbsS'Field12'
p144
g2
(g3
g4
Ntp145
Rp146
(dp147
g8
g9
(g10
(I0
tp148
g12
tp149
Rp150
(I1
(I2
tp151
g16
(S'S1'
p152
I0
I1
tp153
Rp154
(I3
S'|'
p155
NNNI1
I1
I0
tp156
bI00
S'NY'
p157
tp158
bsbsS'SalesField7'
p159
g2
(g3
g4
Ntp160
Rp161
(dp162
g8
g9
(g10
(I0
tp163
g12
tp164
Rp165
(I1
(I7
tp166
g16
(S'S1'
p167
I0
I1
tp168
Rp169
(I3
S'|'
p170
NNNI1
I1
I0
tp171
bI00
S'KMPQRTV'
p172
tp173
bsbsS'PersonalField16'
p174
g2
(g3
g4
Ntp175
Rp176
(dp177
g8
g9
(g10
(I0
tp178
g12
tp179
Rp180
(I1
(I53
tp181
g16
(S'S2'
p182
I0
I1
tp183
Rp184
(I3
S'|'
p185
NNNI2
I1
I0
tp186
bI00
S'XBXCXDXEXFXGXHXIXJXKXLXMXNXOXPXQXRXSXTXUXVXWXXXYXZYEYFYGYHYIZAZBZCZDZEZFZGZHZIZJZKZLZMZNZOZPZQZRZSZTZUZVZW'
p187
tp188
bsbsS'PersonalField17'
p189
g2
(g3
g4
Ntp190
Rp191
(dp192
g8
g9
(g10
(I0
tp193
g12
tp194
Rp195
(I1
(I70
tp196
g16
(S'S2'
p197
I0
I1
tp198
Rp199
(I3
S'|'
p200
NNNI2
I1
I0
tp201
bI00
S'XBXCXDXEXFXGXHXIXJXKXLXMXNXOXPXQXRXSXTXUXVXWXXXYXZYEYFYGYHYIYJYKYLYMYNYOYPYQYRYSYTYUYVYWYXYYYZZAZBZCZDZEZFZGZHZIZJZKZLZMZNZOZPZQZRZSZTZUZVZW'
p202
tp203
bsbsS'CoverageField8'
p204
g2
(g3
g4
Ntp205
Rp206
(dp207
g8
g9
(g10
(I0
tp208
g12
tp209
Rp210
(I1
(I7
tp211
g16
(S'S1'
p212
I0
I1
tp213
Rp214
(I3
S'|'
p215
NNNI1
I1
I0
tp216
bI00
S'TUVWXYZ'
p217
tp218
bsbsS'CoverageField9'
p219
g2
(g3
g4
Ntp220
Rp221
(dp222
g8
g9
(g10
(I0
tp223
g12
tp224
Rp225
(I1
(I12
tp226
g16
(S'S1'
p227
I0
I1
tp228
Rp229
(I3
S'|'
p230
NNNI1
I1
I0
tp231
bI00
S'ABCDEFGHIJKL'
p232
tp233
bsbsS'PropertyField14'
p234
g2
(g3
g4
Ntp235
Rp236
(dp237
g8
g9
(g10
(I0
tp238
g12
tp239
Rp240
(I1
(I4
tp241
g16
(S'S1'
p242
I0
I1
tp243
Rp244
(I3
S'|'
p245
NNNI1
I1
I0
tp246
bI00
S'ABCD'
p247
tp248
bsbsS'GeographicField63'
p249
g2
(g3
g4
Ntp250
Rp251
(dp252
g8
g9
(g10
(I0
tp253
g12
tp254
Rp255
(I1
(I3
tp256
g16
(S'S1'
p257
I0
I1
tp258
Rp259
(I3
S'|'
p260
NNNI1
I1
I0
tp261
bI00
S' NY'
p262
tp263
bsbsS'GeographicField64'
p264
g2
(g3
g4
Ntp265
Rp266
(dp267
g8
g9
(g10
(I0
tp268
g12
tp269
Rp270
(I1
(I4
tp271
g16
(S'S2'
p272
I0
I1
tp273
Rp274
(I3
S'|'
p275
NNNI2
I1
I0
tp276
bI00
S'CAILNJTX'
p277
tp278
bsbsS'PropertyField38'
p279
g2
(g3
g4
Ntp280
Rp281
(dp282
g8
g9
(g10
(I0
tp283
g12
tp284
Rp285
(I1
(I3
tp286
g16
(S'S3'
p287
I0
I1
tp288
Rp289
(I3
S'|'
p290
NNNI3
I1
I0
tp291
bI00
S'N\x00\x00Y\x00\x00nan'
p292
tp293
bsbsS'PropertyField37'
p294
g2
(g3
g4
Ntp295
Rp296
(dp297
g8
g9
(g10
(I0
tp298
g12
tp299
Rp300
(I1
(I3
tp301
g16
(S'S1'
p302
I0
I1
tp303
Rp304
(I3
S'|'
p305
NNNI1
I1
I0
tp306
bI00
S' NY'
p307
tp308
bsbsS'PropertyField36'
p309
g2
(g3
g4
Ntp310
Rp311
(dp312
g8
g9
(g10
(I0
tp313
g12
tp314
Rp315
(I1
(I3
tp316
g16
(S'S3'
p317
I0
I1
tp318
Rp319
(I3
S'|'
p320
NNNI3
I1
I0
tp321
bI00
S'N\x00\x00Y\x00\x00nan'
p322
tp323
bsbsS'PropertyField34'
p324
g2
(g3
g4
Ntp325
Rp326
(dp327
g8
g9
(g10
(I0
tp328
g12
tp329
Rp330
(I1
(I3
tp331
g16
(S'S3'
p332
I0
I1
tp333
Rp334
(I3
S'|'
p335
NNNI3
I1
I0
tp336
bI00
S'N\x00\x00Y\x00\x00nan'
p337
tp338
bsbsS'PropertyField33'
p339
g2
(g3
g4
Ntp340
Rp341
(dp342
g8
g9
(g10
(I0
tp343
g12
tp344
Rp345
(I1
(I4
tp346
g16
(S'S1'
p347
I0
I1
tp348
Rp349
(I3
S'|'
p350
NNNI1
I1
I0
tp351
bI00
S'EFGH'
p352
tp353
bsbsS'PropertyField32'
p354
g2
(g3
g4
Ntp355
Rp356
(dp357
g8
g9
(g10
(I0
tp358
g12
tp359
Rp360
(I1
(I3
tp361
g16
(S'S3'
p362
I0
I1
tp363
Rp364
(I3
S'|'
p365
NNNI3
I1
I0
tp366
bI00
S'N\x00\x00Y\x00\x00nan'
p367
tp368
bsbsS'PropertyField31'
p369
g2
(g3
g4
Ntp370
Rp371
(dp372
g8
g9
(g10
(I0
tp373
g12
tp374
Rp375
(I1
(I4
tp376
g16
(S'S1'
p377
I0
I1
tp378
Rp379
(I3
S'|'
p380
NNNI1
I1
I0
tp381
bI00
S'KMNO'
p382
tp383
bsbsS'PropertyField30'
p384
g2
(g3
g4
Ntp385
Rp386
(dp387
g8
g9
(g10
(I0
tp388
g12
tp389
Rp390
(I1
(I3
tp391
g16
(S'S3'
p392
I0
I1
tp393
Rp394
(I3
S'|'
p395
NNNI3
I1
I0
tp396
bI00
S'N\x00\x00Y\x00\x00nan'
p397
tp398
bsbs.